target datalayout = "e-m:e-p270:32:32-p271:32:32-p272:64:64-i64:64-i128:128-f80:128-n8:16:32:64-S128"
target triple = "x86_64-pc-linux-gnu"

%struct.AVBSFContext = type { ptr, ptr, ptr, ptr, ptr, %struct.AVRational, %struct.AVRational }
%struct.AVRational = type { i32, i32 }
%struct.AVCodecParameters = type { i32, i32, i32, ptr, i32, ptr, i32, i32, i64, i32, i32, i32, i32, i32, i32, %struct.AVRational, %struct.AVRational, i32, i32, i32, i32, i32, i32, i32, %struct.AVChannelLayout, i32, i32, i32, i32, i32, i32 }
%struct.AVChannelLayout = type { i32, i32, %union.anon, ptr }
%union.anon = type { i64 }

@.str.1 = private unnamed_addr constant [44 x i8] c"The input looks like it is Annex B already\0A\00", align 1

; Function Attrs: alwaysinline nounwind willreturn memory(none) uwtable
define internal i32 @av_bswap32(i32 noundef %0) #2 {
  %2 = alloca i32, align 4
  store i32 %0, ptr %2, align 4, !tbaa !22
  %3 = load i32, ptr %2, align 4, !tbaa !22
  %4 = shl i32 %3, 8
  %5 = and i32 %4, 65280
  %6 = load i32, ptr %2, align 4, !tbaa !22
  %7 = lshr i32 %6, 8
  %8 = and i32 %7, 255
  %9 = or i32 %5, %8
  %10 = shl i32 %9, 16
  %11 = load i32, ptr %2, align 4, !tbaa !22
  %12 = lshr i32 %11, 16
  %13 = shl i32 %12, 8
  %14 = and i32 %13, 65280
  %15 = load i32, ptr %2, align 4, !tbaa !22
  %16 = lshr i32 %15, 16
  %17 = lshr i32 %16, 8
  %18 = and i32 %17, 255
  %19 = or i32 %14, %18
  %20 = or i32 %10, %19
  ret i32 %20
}

; Function Attrs: nounwind uwtable
define internal i32 @h264_mp4toannexb_init(ptr noundef %0) #0 {
  %2 = alloca i32, align 4
  %3 = alloca ptr, align 8
  %4 = alloca i32, align 4
  %5 = alloca i32, align 4
  store ptr %0, ptr %3, align 8, !tbaa !4
  call void @llvm.lifetime.start.p0(i64 4, ptr %4) #8
  %6 = load ptr, ptr %3, align 8, !tbaa !4
  %7 = getelementptr inbounds nuw %struct.AVBSFContext, ptr %6, i32 0, i32 3
  %8 = load ptr, ptr %7, align 8, !tbaa !9
  %9 = getelementptr inbounds nuw %struct.AVCodecParameters, ptr %8, i32 0, i32 4
  %10 = load i32, ptr %9, align 8, !tbaa !16
  store i32 %10, ptr %4, align 4, !tbaa !22
  %11 = load i32, ptr %4, align 4, !tbaa !22
  %12 = icmp ne i32 %11, 0
  br i1 %12, label %13, label %58

13:                                               ; preds = %1
  %14 = load i32, ptr %4, align 4, !tbaa !22
  %15 = icmp sge i32 %14, 3
  br i1 %15, label %16, label %46

16:                                               ; preds = %13
  %17 = load ptr, ptr %3, align 8, !tbaa !4
  %18 = getelementptr inbounds nuw %struct.AVBSFContext, ptr %17, i32 0, i32 3
  %19 = load ptr, ptr %18, align 8, !tbaa !9
  %20 = getelementptr inbounds nuw %struct.AVCodecParameters, ptr %19, i32 0, i32 3
  %21 = load ptr, ptr %20, align 8, !tbaa !23
  %22 = getelementptr inbounds i8, ptr %21, i64 0
  %23 = load i8, ptr %22, align 1, !tbaa !24
  %24 = zext i8 %23 to i32
  %25 = shl i32 %24, 16
  %26 = load ptr, ptr %3, align 8, !tbaa !4
  %27 = getelementptr inbounds nuw %struct.AVBSFContext, ptr %26, i32 0, i32 3
  %28 = load ptr, ptr %27, align 8, !tbaa !9
  %29 = getelementptr inbounds nuw %struct.AVCodecParameters, ptr %28, i32 0, i32 3
  %30 = load ptr, ptr %29, align 8, !tbaa !23
  %31 = getelementptr inbounds i8, ptr %30, i64 1
  %32 = load i8, ptr %31, align 1, !tbaa !24
  %33 = zext i8 %32 to i32
  %34 = shl i32 %33, 8
  %35 = or i32 %25, %34
  %36 = load ptr, ptr %3, align 8, !tbaa !4
  %37 = getelementptr inbounds nuw %struct.AVBSFContext, ptr %36, i32 0, i32 3
  %38 = load ptr, ptr %37, align 8, !tbaa !9
  %39 = getelementptr inbounds nuw %struct.AVCodecParameters, ptr %38, i32 0, i32 3
  %40 = load ptr, ptr %39, align 8, !tbaa !23
  %41 = getelementptr inbounds i8, ptr %40, i64 2
  %42 = load i8, ptr %41, align 1, !tbaa !24
  %43 = zext i8 %42 to i32
  %44 = or i32 %35, %43
  %45 = icmp eq i32 %44, 1
  br i1 %45, label %58, label %46

46:                                               ; preds = %16, %13
  %47 = load i32, ptr %4, align 4, !tbaa !22
  %48 = icmp sge i32 %47, 4
  br i1 %48, label %49, label %60

49:                                               ; preds = %46
  %50 = load ptr, ptr %3, align 8, !tbaa !4
  %51 = getelementptr inbounds nuw %struct.AVBSFContext, ptr %50, i32 0, i32 3
  %52 = load ptr, ptr %51, align 8, !tbaa !9
  %53 = getelementptr inbounds nuw %struct.AVCodecParameters, ptr %52, i32 0, i32 3
  %54 = load ptr, ptr %53, align 8, !tbaa !23
  %55 = load i32, ptr %54, align 1, !tbaa !24
  %56 = call i32 @av_bswap32(i32 noundef %55) #9
  %57 = icmp eq i32 %56, 1
  br i1 %57, label %58, label %60

58:                                               ; preds = %49, %16, %1
  %59 = load ptr, ptr %3, align 8, !tbaa !4
  call void (ptr, i32, ptr, ...) @av_log(ptr noundef %59, i32 noundef 40, ptr noundef @.str.1)
  store i32 0, ptr %2, align 4
  store i32 1, ptr %5, align 4
  br label %73

60:                                               ; preds = %49, %46
  %61 = load ptr, ptr %3, align 8, !tbaa !4
  %62 = load ptr, ptr %3, align 8, !tbaa !4
  %63 = getelementptr inbounds nuw %struct.AVBSFContext, ptr %62, i32 0, i32 3
  %64 = load ptr, ptr %63, align 8, !tbaa !9
  %65 = getelementptr inbounds nuw %struct.AVCodecParameters, ptr %64, i32 0, i32 3
  %66 = load ptr, ptr %65, align 8, !tbaa !23
  %67 = load ptr, ptr %3, align 8, !tbaa !4
  %68 = getelementptr inbounds nuw %struct.AVBSFContext, ptr %67, i32 0, i32 3
  %69 = load ptr, ptr %68, align 8, !tbaa !9
  %70 = getelementptr inbounds nuw %struct.AVCodecParameters, ptr %69, i32 0, i32 4
  %71 = load i32, ptr %70, align 8, !tbaa !16
  %72 = call i32 @h264_extradata_to_annexb(ptr noundef %61, ptr noundef %66, i32 noundef %71)
  store i32 %72, ptr %2, align 4
  store i32 1, ptr %5, align 4
  br label %73

73:                                               ; preds = %60, %58
  call void @llvm.lifetime.end.p0(i64 4, ptr %4) #8
  %74 = load i32, ptr %2, align 4
  ret i32 %74
}