; Function Attrs: nounwind uwtable
define internal range(i32 -2147483648, 1) i32 @h264_mp4toannexb_init(ptr noundef %0) #0 {
  %2 = getelementptr inbounds nuw i8, ptr %0, i64 24
  %3 = load ptr, ptr %2, align 8, !tbaa !4
  %4 = getelementptr inbounds nuw i8, ptr %3, i64 24
  %5 = load i32, ptr %4, align 8, !tbaa !14
  %.not = icmp eq i32 %5, 0
  br i1 %.not, label %28, label %6

6:                                                ; preds = %1
  %7 = icmp sgt i32 %5, 2
  %8 = getelementptr inbounds nuw i8, ptr %3, i64 16
  %9 = load ptr, ptr %8, align 8, !tbaa !20
  br i1 %7, label %10, label %.thread

10:                                               ; preds = %6
  %11 = load i8, ptr %9, align 1, !tbaa !21
  %12 = zext i8 %11 to i32
  %13 = shl nuw nsw i32 %12, 16
  %14 = getelementptr inbounds nuw i8, ptr %9, i64 1
  %15 = load i8, ptr %14, align 1, !tbaa !21
  %16 = zext i8 %15 to i32
  %17 = shl nuw nsw i32 %16, 8
  %18 = or disjoint i32 %17, %13
  %19 = getelementptr inbounds nuw i8, ptr %9, i64 2
  %20 = load i8, ptr %19, align 1, !tbaa !21
  %21 = zext i8 %20 to i32
  %22 = or disjoint i32 %18, %21
  %23 = icmp eq i32 %22, 1
  br i1 %23, label %28, label %24

24:                                               ; preds = %10
  %.not13 = icmp eq i32 %5, 3
  br i1 %.not13, label %.thread, label %25

25:                                               ; preds = %24
  %26 = load i32, ptr %9, align 1, !tbaa !21
  %27 = icmp eq i32 %26, 16777216
  br i1 %27, label %28, label %.thread

28:                                               ; preds = %25, %10, %1
  tail call void (ptr, i32, ptr, ...) @av_log(ptr noundef nonnull %0, i32 noundef 40, ptr noundef nonnull @.str.1) #7
  br label %30

.thread:                                          ; preds = %6, %25, %24
  %29 = tail call fastcc i32 @h264_extradata_to_annexb(ptr noundef nonnull %0, ptr noundef %9, i32 noundef %5)
  br label %30

30:                                               ; preds = %.thread, %28
  %.0 = phi i32 [ 0, %28 ], [ %29, %.thread ]
  ret i32 %.0
}